; Function Attrs: mustprogress nofree norecurse nosync nounwind willreturn memory(read, inaccessiblemem: none) uwtable
define noundef signext i8 @_ZNK6icu_759UVector3212containsNoneERKS0_(ptr nocapture noundef nonnull readonly align 8 dereferenceable(32) %this, ptr nocapture noundef nonnull readonly align 8 dereferenceable(32) %other) local_unnamed_addr #7 align 2 {
entry:
  %count.i = getelementptr inbounds i8, ptr %other, i64 8
  %0 = load i32, ptr %count.i, align 8
  %cmp8 = icmp sgt i32 %0, 0
  br i1 %cmp8, label %for.body.lr.ph, label %return

for.body.lr.ph:                                   ; preds = %entry
  %elements = getelementptr inbounds i8, ptr %other, i64 24
  %1 = load ptr, ptr %elements, align 8
  %count.i4 = getelementptr inbounds i8, ptr %this, i64 8
  %2 = load i32, ptr %count.i4, align 8
  %cmp4.i = icmp sgt i32 %2, 0
  %elements.i = getelementptr inbounds i8, ptr %this, i64 24
  %3 = load ptr, ptr %elements.i, align 8
  br i1 %cmp4.i, label %for.body.us.preheader, label %return

for.body.us.preheader:                            ; preds = %for.body.lr.ph
  %wide.trip.count = zext nneg i32 %0 to i64
  %zext = zext nneg i32 %2 to i64
  br label %for.body.us

for.body.us:                                      ; preds = %for.body.us.preheader, %for.inc.us
  %indvars.iv = phi i64 [ 0, %for.body.us.preheader ], [ %indvars.iv.next, %for.inc.us ]
  %arrayidx.us = getelementptr inbounds i32, ptr %1, i64 %indvars.iv
  %4 = load i32, ptr %arrayidx.us, align 4
  br label %for.body.i.us

for.body.i.us:                                    ; preds = %for.inc.i.us, %for.body.us
  %indvars.iv.i.us = phi i64 [ 0, %for.body.us ], [ %indvars.iv.next.i.us, %for.inc.i.us ]
  %arrayidx.i.us = getelementptr inbounds i32, ptr %3, i64 %indvars.iv.i.us
  %5 = load i32, ptr %arrayidx.i.us, align 4
  %cmp2.i.us = icmp eq i32 %5, %4
  br i1 %cmp2.i.us, label %_ZNK6icu_759UVector327indexOfEii.exit.us, label %for.inc.i.us

for.inc.i.us:                                     ; preds = %for.body.i.us
  %indvars.iv.next.i.us = add nuw nsw i64 %indvars.iv.i.us, 1
  %6 = icmp eq i64 %indvars.iv.next.i.us, %zext
  br i1 %6, label %for.inc.us, label %for.body.i.us, !llvm.loop !10

_ZNK6icu_759UVector327indexOfEii.exit.us:         ; preds = %for.body.i.us
  %7 = and i64 %indvars.iv.i.us, 2147483648
  %cmp3.us = icmp eq i64 %7, 0
  br i1 %cmp3.us, label %return, label %for.inc.us

for.inc.us:                                       ; preds = %for.inc.i.us, %_ZNK6icu_759UVector327indexOfEii.exit.us
  %indvars.iv.next = add nuw nsw i64 %indvars.iv, 1
  %exitcond.not = icmp eq i64 %indvars.iv.next, %wide.trip.count
  br i1 %exitcond.not, label %return, label %for.body.us, !llvm.loop !11

return:                                           ; preds = %_ZNK6icu_759UVector327indexOfEii.exit.us, %for.inc.us, %for.body.lr.ph, %entry
  %retval.0 = phi i8 [ 1, %entry ], [ 1, %for.body.lr.ph ], [ 1, %for.inc.us ], [ 0, %_ZNK6icu_759UVector327indexOfEii.exit.us ]
  ret i8 %retval.0
}